target datalayout = "e-m:e-p270:32:32-p271:32:32-p272:64:64-i64:64-i128:128-f80:128-n8:16:32:64-S128"
target triple = "x86_64-pc-linux-gnu"

@.str.2 = private unnamed_addr constant [8 x i8] c"command\00", align 1
@.str.3 = private unnamed_addr constant [8 x i8] c"depfile\00", align 1
@.str.4 = private unnamed_addr constant [7 x i8] c"dyndep\00", align 1
@.str.5 = private unnamed_addr constant [12 x i8] c"description\00", align 1
@.str.6 = private unnamed_addr constant [5 x i8] c"deps\00", align 1
@.str.7 = private unnamed_addr constant [10 x i8] c"generator\00", align 1
@.str.8 = private unnamed_addr constant [5 x i8] c"pool\00", align 1
@.str.9 = private unnamed_addr constant [7 x i8] c"restat\00", align 1
@.str.10 = private unnamed_addr constant [8 x i8] c"rspfile\00", align 1
@.str.11 = private unnamed_addr constant [16 x i8] c"rspfile_content\00", align 1
@.str.12 = private unnamed_addr constant [17 x i8] c"msvc_deps_prefix\00", align 1

; Function Attrs: inlinehint mustprogress nounwind uwtable
define linkonce_odr dso_local noundef zeroext i1 @_ZSteqIcSt11char_traitsIcESaIcEEbRKNSt7__cxx1112basic_stringIT_T0_T1_EEPKS5_(ptr noundef nonnull align 8 dereferenceable(32) %0, ptr noundef %1) #6 comdat {
  %3 = alloca ptr, align 8
  %4 = alloca ptr, align 8
  store ptr %0, ptr %3, align 8, !tbaa !9
  store ptr %1, ptr %4, align 8, !tbaa !37
  %5 = load ptr, ptr %3, align 8, !tbaa !9
  %6 = load ptr, ptr %4, align 8, !tbaa !37
  %7 = call noundef i32 @_ZNKSt7__cxx1112basic_stringIcSt11char_traitsIcESaIcEE7compareEPKc(ptr noundef nonnull align 8 dereferenceable(32) %5, ptr noundef %6) #16
  %8 = icmp eq i32 %7, 0
  ret i1 %8
}

; Function Attrs: mustprogress uwtable
define dso_local noundef zeroext i1 @_ZN4Rule17IsReservedBindingERKNSt7__cxx1112basic_stringIcSt11char_traitsIcESaIcEEE(ptr noundef nonnull align 8 dereferenceable(32) %0) #0 align 2 {
  %2 = alloca ptr, align 8
  store ptr %0, ptr %2, align 8, !tbaa !9
  %3 = load ptr, ptr %2, align 8, !tbaa !9
  %4 = call noundef zeroext i1 @_ZSteqIcSt11char_traitsIcESaIcEEbRKNSt7__cxx1112basic_stringIT_T0_T1_EEPKS5_(ptr noundef nonnull align 8 dereferenceable(32) %3, ptr noundef @.str.2)
  br i1 %4, label %35, label %5

5:                                                ; preds = %1
  %6 = load ptr, ptr %2, align 8, !tbaa !9
  %7 = call noundef zeroext i1 @_ZSteqIcSt11char_traitsIcESaIcEEbRKNSt7__cxx1112basic_stringIT_T0_T1_EEPKS5_(ptr noundef nonnull align 8 dereferenceable(32) %6, ptr noundef @.str.3)
  br i1 %7, label %35, label %8

8:                                                ; preds = %5
  %9 = load ptr, ptr %2, align 8, !tbaa !9
  %10 = call noundef zeroext i1 @_ZSteqIcSt11char_traitsIcESaIcEEbRKNSt7__cxx1112basic_stringIT_T0_T1_EEPKS5_(ptr noundef nonnull align 8 dereferenceable(32) %9, ptr noundef @.str.4)
  br i1 %10, label %35, label %11

11:                                               ; preds = %8
  %12 = load ptr, ptr %2, align 8, !tbaa !9
  %13 = call noundef zeroext i1 @_ZSteqIcSt11char_traitsIcESaIcEEbRKNSt7__cxx1112basic_stringIT_T0_T1_EEPKS5_(ptr noundef nonnull align 8 dereferenceable(32) %12, ptr noundef @.str.5)
  br i1 %13, label %35, label %14

14:                                               ; preds = %11
  %15 = load ptr, ptr %2, align 8, !tbaa !9
  %16 = call noundef zeroext i1 @_ZSteqIcSt11char_traitsIcESaIcEEbRKNSt7__cxx1112basic_stringIT_T0_T1_EEPKS5_(ptr noundef nonnull align 8 dereferenceable(32) %15, ptr noundef @.str.6)
  br i1 %16, label %35, label %17

17:                                               ; preds = %14
  %18 = load ptr, ptr %2, align 8, !tbaa !9
  %19 = call noundef zeroext i1 @_ZSteqIcSt11char_traitsIcESaIcEEbRKNSt7__cxx1112basic_stringIT_T0_T1_EEPKS5_(ptr noundef nonnull align 8 dereferenceable(32) %18, ptr noundef @.str.7)
  br i1 %19, label %35, label %20

20:                                               ; preds = %17
  %21 = load ptr, ptr %2, align 8, !tbaa !9
  %22 = call noundef zeroext i1 @_ZSteqIcSt11char_traitsIcESaIcEEbRKNSt7__cxx1112basic_stringIT_T0_T1_EEPKS5_(ptr noundef nonnull align 8 dereferenceable(32) %21, ptr noundef @.str.8)
  br i1 %22, label %35, label %23

23:                                               ; preds = %20
  %24 = load ptr, ptr %2, align 8, !tbaa !9
  %25 = call noundef zeroext i1 @_ZSteqIcSt11char_traitsIcESaIcEEbRKNSt7__cxx1112basic_stringIT_T0_T1_EEPKS5_(ptr noundef nonnull align 8 dereferenceable(32) %24, ptr noundef @.str.9)
  br i1 %25, label %35, label %26

26:                                               ; preds = %23
  %27 = load ptr, ptr %2, align 8, !tbaa !9
  %28 = call noundef zeroext i1 @_ZSteqIcSt11char_traitsIcESaIcEEbRKNSt7__cxx1112basic_stringIT_T0_T1_EEPKS5_(ptr noundef nonnull align 8 dereferenceable(32) %27, ptr noundef @.str.10)
  br i1 %28, label %35, label %29

29:                                               ; preds = %26
  %30 = load ptr, ptr %2, align 8, !tbaa !9
  %31 = call noundef zeroext i1 @_ZSteqIcSt11char_traitsIcESaIcEEbRKNSt7__cxx1112basic_stringIT_T0_T1_EEPKS5_(ptr noundef nonnull align 8 dereferenceable(32) %30, ptr noundef @.str.11)
  br i1 %31, label %35, label %32

32:                                               ; preds = %29
  %33 = load ptr, ptr %2, align 8, !tbaa !9
  %34 = call noundef zeroext i1 @_ZSteqIcSt11char_traitsIcESaIcEEbRKNSt7__cxx1112basic_stringIT_T0_T1_EEPKS5_(ptr noundef nonnull align 8 dereferenceable(32) %33, ptr noundef @.str.12)
  br label %35

35:                                               ; preds = %32, %29, %26, %23, %20, %17, %14, %11, %8, %5, %1
  %36 = phi i1 [ true, %29 ], [ true, %26 ], [ true, %23 ], [ true, %20 ], [ true, %17 ], [ true, %14 ], [ true, %11 ], [ true, %8 ], [ true, %5 ], [ true, %1 ], [ %34, %32 ]
  ret i1 %36
}